ccopy_reg
_reconstructor
p1
(csklearn.preprocessing.data
MinMaxScaler
p2
c__builtin__
object
p3
NtRp4
(dp5
S'data_min_'
p6
cnumpy.core.multiarray
scalar
p7
(cnumpy
dtype
p8
(S'f8'
I0
I1
tRp9
(I3
S'<'
NNNI-1
I-1
I0
tbS'\x00\x00\x00\x00\x00\x00\xf0?'
tRp10
sS'feature_range'
p11
(I0
I1
tp12
sS'data_range_'
p13
g7
(g9
S'\x00\x00\x00\x00\x00\x00\x10@'
tRp14
sS'scale_'
p15
g7
(g9
S'\x00\x00\x00\x00\x00\x00\xd0?'
tRp16
sS'data_max_'
p17
g7
(g9
S'\x00\x00\x00\x00\x00\x00\x14@'
tRp18
sS'n_samples_seen_'
p19
I632321
sS'min_'
p20
g7
(g9
S'\x00\x00\x00\x00\x00\x00\xd0\xbf'
tRp21
sS'_sklearn_version'
p22
S'0.18.1'
p23
sS'copy'
p24
I01
sb.