(dp1
S'acc'
p2
(lp3
cnumpy.core.multiarray
scalar
p4
(cnumpy
dtype
p5
(S'f8'
I0
I1
tRp6
(I3
S'<'
NNNI-1
I-1
I0
tbS')9I\x0f\x8bg\xe5?'
tRp7
asS'loss'
p8
(lp9
g4
(g6
S'O\xec\x8c\xf0\xae\x1e\xd6?'
tRp10
asS'val_acc'
p11
(lp12
g4
(g6
S'n\xf0\x0e\xd5\x93\xcd\xe4?'
tRp13
asS'val_loss'
p14
(lp15
g4
(g6
S'|\xfa\x0b2\xe2\x03\xd6?'
tRp16
as.